; Function Attrs: mustprogress uwtable
define noundef nonnull ptr @_ZN4lean15mpz_to_nat_coreERKNS_3mpzE(ptr noundef nonnull align 8 dereferenceable(16) %0) local_unnamed_addr #0 {
  tail call void @lean_inc_heartbeat()
  %2 = tail call noalias ptr @mi_malloc_small(i64 noundef 24) #40
  %3 = icmp eq ptr %2, null
  br i1 %3, label %4, label %_ZN4lean9alloc_mpzERKNS_3mpzE.exit

4:                                                ; preds = %1
  tail call void @lean_internal_panic_out_of_memory() #43
  unreachable

_ZN4lean9alloc_mpzERKNS_3mpzE.exit:               ; preds = %1
  %5 = getelementptr inbounds nuw i8, ptr %2, i64 4
  %6 = load i32, ptr %5, align 4
  %7 = and i32 %6, -65536
  %8 = or disjoint i32 %7, 24
  store i32 %8, ptr %5, align 4
  %9 = getelementptr inbounds nuw i8, ptr %2, i64 8
  tail call void @_ZN4lean3mpzC1ERKS0_(ptr noundef nonnull align 8 dereferenceable(16) %9, ptr noundef nonnull align 8 dereferenceable(16) %0)
  store i32 1, ptr %2, align 4, !tbaa !23
  store i32 -100663272, ptr %5, align 4
  ret ptr %2
}